target datalayout = "e-m:e-p270:32:32-p271:32:32-p272:64:64-i64:64-i128:128-f80:128-n8:16:32:64-S128"
target triple = "x86_64-pc-linux-gnu"

%struct.ident_t = type { i32, i32, i32, i32, ptr }
%"class.ncnn::Mat" = type { ptr, ptr, i64, i32, ptr, i32, i32, i32, i32, i32, i64 }

@1 = private unnamed_addr constant %struct.ident_t { i32 0, i32 514, i32 0, i32 22, ptr @0 }, align 8

; Function Attrs: noinline noreturn nounwind uwtable
define linkonce_odr hidden void @__clang_call_terminate(ptr noundef %0) #6 comdat {
  %2 = call ptr @__cxa_begin_catch(ptr %0) #10
  call void @_ZSt9terminatev() #15
  unreachable
}

; Function Attrs: alwaysinline mustprogress nounwind uwtable
define linkonce_odr hidden noundef nonnull align 4 dereferenceable(4) ptr @_ZN4ncnn3MatixEm(ptr noundef nonnull align 8 dereferenceable(72) %0, i64 noundef %1) #3 comdat align 2 {
  %3 = alloca ptr, align 8
  %4 = alloca i64, align 8
  store ptr %0, ptr %3, align 8, !tbaa !45
  store i64 %1, ptr %4, align 8, !tbaa !69
  %5 = load ptr, ptr %3, align 8
  %6 = getelementptr inbounds nuw %"class.ncnn::Mat", ptr %5, i32 0, i32 0
  %7 = load ptr, ptr %6, align 8, !tbaa !58
  %8 = load i64, ptr %4, align 8, !tbaa !69
  %9 = getelementptr inbounds nuw float, ptr %7, i64 %8
  ret ptr %9
}

; Function Attrs: alwaysinline mustprogress nounwind uwtable
define linkonce_odr hidden noundef ptr @_ZNK4ncnn3Mat3rowEi(ptr noundef nonnull align 8 dereferenceable(72) %0, i32 noundef %1) #3 comdat align 2 {
  %3 = alloca ptr, align 8
  %4 = alloca i32, align 4
  store ptr %0, ptr %3, align 8, !tbaa !45
  store i32 %1, ptr %4, align 4, !tbaa !40
  %5 = load ptr, ptr %3, align 8
  %6 = getelementptr inbounds nuw %"class.ncnn::Mat", ptr %5, i32 0, i32 0
  %7 = load ptr, ptr %6, align 8, !tbaa !58
  %8 = getelementptr inbounds nuw %"class.ncnn::Mat", ptr %5, i32 0, i32 6
  %9 = load i32, ptr %8, align 4, !tbaa !64
  %10 = sext i32 %9 to i64
  %11 = load i32, ptr %4, align 4, !tbaa !40
  %12 = sext i32 %11 to i64
  %13 = mul i64 %10, %12
  %14 = getelementptr inbounds nuw %"class.ncnn::Mat", ptr %5, i32 0, i32 2
  %15 = load i64, ptr %14, align 8, !tbaa !60
  %16 = mul i64 %13, %15
  %17 = getelementptr inbounds nuw i8, ptr %7, i64 %16
  ret ptr %17
}

; Function Attrs: alwaysinline norecurse nounwind uwtable
define internal void @_ZN4ncnnL9lstm_int8ERKNS_3MatERS0_iS2_PKfS2_S2_S5_S2_S3_S3_RKNS_6OptionE.omp_outlined.2(ptr noalias noundef %0, ptr noalias noundef %1, ptr noundef nonnull align 4 dereferenceable(4) %2, ptr noundef nonnull align 8 dereferenceable(72) %3, ptr noundef nonnull align 4 dereferenceable(4) %4, ptr noundef nonnull align 8 dereferenceable(72) %5, ptr noundef nonnull align 8 dereferenceable(72) %6, ptr noundef nonnull align 8 dereferenceable(8) %7) #9 personality ptr @__gxx_personality_v0 {
  %9 = alloca ptr, align 8
  %10 = alloca ptr, align 8
  %11 = alloca ptr, align 8
  %12 = alloca ptr, align 8
  %13 = alloca ptr, align 8
  %14 = alloca ptr, align 8
  %15 = alloca ptr, align 8
  %16 = alloca ptr, align 8
  %17 = alloca ptr, align 8
  %18 = alloca ptr, align 8
  %19 = alloca i32, align 4
  %20 = alloca i32, align 4
  %21 = alloca i32, align 4
  %22 = alloca i32, align 4
  %23 = alloca i32, align 4
  %24 = alloca i32, align 4
  %25 = alloca i32, align 4
  %26 = alloca i32, align 4
  %27 = alloca i32, align 4
  %28 = alloca ptr, align 8
  %29 = alloca float, align 4
  %30 = alloca i32, align 4
  store ptr %0, ptr %9, align 8, !tbaa !85
  store ptr %1, ptr %10, align 8, !tbaa !85
  store ptr %2, ptr %11, align 8, !tbaa !85
  store ptr %3, ptr %12, align 8, !tbaa !45
  store ptr %4, ptr %13, align 8, !tbaa !85
  store ptr %5, ptr %14, align 8, !tbaa !45
  store ptr %6, ptr %15, align 8, !tbaa !45
  store ptr %7, ptr %16, align 8, !tbaa !86
  %31 = load ptr, ptr %11, align 8, !tbaa !85
  %32 = load ptr, ptr %12, align 8, !tbaa !45
  %33 = load ptr, ptr %13, align 8, !tbaa !85
  %34 = load ptr, ptr %14, align 8, !tbaa !45
  %35 = load ptr, ptr %15, align 8, !tbaa !45
  %36 = load ptr, ptr %16, align 8, !tbaa !86
  store ptr %32, ptr %17, align 8
  store ptr %35, ptr %18, align 8
  call void @llvm.lifetime.start.p0(i64 4, ptr %19) #10
  call void @llvm.lifetime.start.p0(i64 4, ptr %20) #10
  %37 = load i32, ptr %31, align 4, !tbaa !40
  store i32 %37, ptr %20, align 4, !tbaa !40
  call void @llvm.lifetime.start.p0(i64 4, ptr %21) #10
  %38 = load i32, ptr %20, align 4, !tbaa !40
  %39 = sub nsw i32 %38, 0
  %40 = sdiv i32 %39, 1
  %41 = sub nsw i32 %40, 1
  store i32 %41, ptr %21, align 4, !tbaa !40
  call void @llvm.lifetime.start.p0(i64 4, ptr %22) #10
  store i32 0, ptr %22, align 4, !tbaa !40
  call void @llvm.lifetime.end.p0(i64 4, ptr %22) #10
  %42 = load i32, ptr %20, align 4, !tbaa !40
  %43 = icmp slt i32 0, %42
  br i1 %43, label %44, label %113

44:                                               ; preds = %8
  call void @llvm.lifetime.start.p0(i64 4, ptr %23) #10
  store i32 0, ptr %23, align 4, !tbaa !40
  call void @llvm.lifetime.start.p0(i64 4, ptr %24) #10
  %45 = load i32, ptr %21, align 4, !tbaa !40
  store i32 %45, ptr %24, align 4, !tbaa !40
  call void @llvm.lifetime.start.p0(i64 4, ptr %25) #10
  store i32 1, ptr %25, align 4, !tbaa !40
  call void @llvm.lifetime.start.p0(i64 4, ptr %26) #10
  store i32 0, ptr %26, align 4, !tbaa !40
  call void @llvm.lifetime.start.p0(i64 4, ptr %27) #10
  %46 = load ptr, ptr %9, align 8
  %47 = load i32, ptr %46, align 4, !tbaa !40
  call void @__kmpc_for_static_init_4(ptr @1, i32 %47, i32 34, ptr %26, ptr %23, ptr %24, ptr %25, i32 1, i32 1)
  %48 = load i32, ptr %24, align 4, !tbaa !40
  %49 = load i32, ptr %21, align 4, !tbaa !40
  %50 = icmp sgt i32 %48, %49
  br i1 %50, label %51, label %53

51:                                               ; preds = %44
  %52 = load i32, ptr %21, align 4, !tbaa !40
  br label %55

53:                                               ; preds = %44
  %54 = load i32, ptr %24, align 4, !tbaa !40
  br label %55

55:                                               ; preds = %53, %51
  %56 = phi i32 [ %52, %51 ], [ %54, %53 ]
  store i32 %56, ptr %24, align 4, !tbaa !40
  %57 = load i32, ptr %23, align 4, !tbaa !40
  store i32 %57, ptr %19, align 4, !tbaa !40
  br label %58

58:                                               ; preds = %106, %55
  %59 = load i32, ptr %19, align 4, !tbaa !40
  %60 = load i32, ptr %24, align 4, !tbaa !40
  %61 = icmp sle i32 %59, %60
  br i1 %61, label %63, label %62

62:                                               ; preds = %58
  br label %109

63:                                               ; preds = %58
  %64 = load i32, ptr %19, align 4, !tbaa !40
  %65 = mul nsw i32 %64, 1
  %66 = add nsw i32 0, %65
  store i32 %66, ptr %27, align 4, !tbaa !40
  call void @llvm.lifetime.start.p0(i64 8, ptr %28) #10
  %67 = load ptr, ptr %17, align 8, !tbaa !45
  %68 = load i32, ptr %27, align 4, !tbaa !40
  %69 = invoke noundef ptr @_ZNK4ncnn3Mat3rowEi(ptr noundef nonnull align 8 dereferenceable(72) %67, i32 noundef %68)
          to label %70 unwind label %114

70:                                               ; preds = %63
  store ptr %69, ptr %28, align 8, !tbaa !51
  call void @llvm.lifetime.start.p0(i64 4, ptr %29) #10
  store float 0.000000e+00, ptr %29, align 4, !tbaa !70
  call void @llvm.lifetime.start.p0(i64 4, ptr %30) #10
  store i32 0, ptr %30, align 4, !tbaa !40
  br label %71

71:                                               ; preds = %90, %70
  %72 = load i32, ptr %30, align 4, !tbaa !40
  %73 = load i32, ptr %33, align 4, !tbaa !40
  %74 = icmp slt i32 %72, %73
  br i1 %74, label %76, label %75

75:                                               ; preds = %71
  call void @llvm.lifetime.end.p0(i64 4, ptr %30) #10
  br label %93

76:                                               ; preds = %71
  %77 = load i32, ptr %30, align 4, !tbaa !40
  %78 = sext i32 %77 to i64
  %79 = invoke noundef nonnull align 4 dereferenceable(4) ptr @_ZN4ncnn3MatixEm(ptr noundef nonnull align 8 dereferenceable(72) %34, i64 noundef %78)
          to label %80 unwind label %114

80:                                               ; preds = %76
  %81 = load float, ptr %79, align 4, !tbaa !70
  %82 = load ptr, ptr %28, align 8, !tbaa !51
  %83 = load i32, ptr %30, align 4, !tbaa !40
  %84 = sext i32 %83 to i64
  %85 = getelementptr inbounds float, ptr %82, i64 %84
  %86 = load float, ptr %85, align 4, !tbaa !70
  %87 = fmul fast float %81, %86
  %88 = load float, ptr %29, align 4, !tbaa !70
  %89 = fadd fast float %88, %87
  store float %89, ptr %29, align 4, !tbaa !70
  br label %90

90:                                               ; preds = %80
  %91 = load i32, ptr %30, align 4, !tbaa !40
  %92 = add nsw i32 %91, 1
  store i32 %92, ptr %30, align 4, !tbaa !40
  br label %71, !llvm.loop !95

93:                                               ; preds = %75
  %94 = load float, ptr %29, align 4, !tbaa !70
  %95 = load ptr, ptr %18, align 8, !tbaa !45
  %96 = load i32, ptr %27, align 4, !tbaa !40
  %97 = sext i32 %96 to i64
  %98 = invoke noundef nonnull align 4 dereferenceable(4) ptr @_ZN4ncnn3MatixEm(ptr noundef nonnull align 8 dereferenceable(72) %95, i64 noundef %97)
          to label %99 unwind label %114

99:                                               ; preds = %93
  store float %94, ptr %98, align 4, !tbaa !70
  %100 = load float, ptr %29, align 4, !tbaa !70
  %101 = load ptr, ptr %36, align 8, !tbaa !51
  %102 = load i32, ptr %27, align 4, !tbaa !40
  %103 = sext i32 %102 to i64
  %104 = getelementptr inbounds float, ptr %101, i64 %103
  store float %100, ptr %104, align 4, !tbaa !70
  call void @llvm.lifetime.end.p0(i64 4, ptr %29) #10
  call void @llvm.lifetime.end.p0(i64 8, ptr %28) #10
  br label %105

105:                                              ; preds = %99
  br label %106

106:                                              ; preds = %105
  %107 = load i32, ptr %19, align 4, !tbaa !40
  %108 = add nsw i32 %107, 1
  store i32 %108, ptr %19, align 4, !tbaa !40
  br label %58

109:                                              ; preds = %62
  br label %110

110:                                              ; preds = %109
  %111 = load ptr, ptr %9, align 8
  %112 = load i32, ptr %111, align 4, !tbaa !40
  call void @__kmpc_for_static_fini(ptr @1, i32 %112)
  call void @llvm.lifetime.end.p0(i64 4, ptr %27) #10
  call void @llvm.lifetime.end.p0(i64 4, ptr %26) #10
  call void @llvm.lifetime.end.p0(i64 4, ptr %25) #10
  call void @llvm.lifetime.end.p0(i64 4, ptr %24) #10
  call void @llvm.lifetime.end.p0(i64 4, ptr %23) #10
  br label %113

113:                                              ; preds = %110, %8
  call void @llvm.lifetime.end.p0(i64 4, ptr %21) #10
  call void @llvm.lifetime.end.p0(i64 4, ptr %20) #10
  call void @llvm.lifetime.end.p0(i64 4, ptr %19) #10
  ret void

114:                                              ; preds = %93, %76, %63
  %115 = landingpad { ptr, i32 }
          catch ptr null
  %116 = extractvalue { ptr, i32 } %115, 0
  call void @__clang_call_terminate(ptr %116) #15
  unreachable
}