; Function Attrs: alwaysinline norecurse nounwind uwtable
define internal void @_ZN4ncnnL9lstm_int8ERKNS_3MatERS0_iS2_PKfS2_S2_S5_S2_S3_S3_RKNS_6OptionE.omp_outlined.2(ptr noalias noundef readonly captures(none) %0, ptr noalias readnone captures(none) %1, ptr noundef nonnull readonly align 4 captures(none) dereferenceable(4) %2, ptr noundef nonnull readonly align 8 captures(none) dereferenceable(72) %3, ptr noundef nonnull readonly align 4 captures(none) dereferenceable(4) %4, ptr noundef nonnull readonly align 8 captures(none) dereferenceable(72) %5, ptr noundef nonnull readonly align 8 captures(none) dereferenceable(72) %6, ptr noundef nonnull readonly align 8 captures(none) dereferenceable(8) %7) #9 personality ptr @__gxx_personality_v0 {
  %9 = alloca i32, align 4
  %10 = alloca i32, align 4
  %11 = alloca i32, align 4
  %12 = alloca i32, align 4
  %13 = load i32, ptr %2, align 4, !tbaa !215
  %14 = icmp sgt i32 %13, 0
  br i1 %14, label %15, label %46

15:                                               ; preds = %8
  %16 = add nsw i32 %13, -1
  call void @llvm.lifetime.start.p0(i64 4, ptr nonnull %9) #10
  store i32 0, ptr %9, align 4, !tbaa !215
  call void @llvm.lifetime.start.p0(i64 4, ptr nonnull %10) #10
  store i32 %16, ptr %10, align 4, !tbaa !215
  call void @llvm.lifetime.start.p0(i64 4, ptr nonnull %11) #10
  store i32 1, ptr %11, align 4, !tbaa !215
  call void @llvm.lifetime.start.p0(i64 4, ptr nonnull %12) #10
  store i32 0, ptr %12, align 4, !tbaa !215
  %17 = load i32, ptr %0, align 4, !tbaa !215
  call void @__kmpc_for_static_init_4(ptr nonnull @1, i32 %17, i32 34, ptr nonnull %12, ptr nonnull %9, ptr nonnull %10, ptr nonnull %11, i32 1, i32 1)
  %18 = load i32, ptr %10, align 4, !tbaa !215
  %19 = call i32 @llvm.smin.i32(i32 %18, i32 %16)
  store i32 %19, ptr %10, align 4, !tbaa !215
  %20 = load i32, ptr %9, align 4, !tbaa !215
  %.not32 = icmp sgt i32 %20, %19
  br i1 %.not32, label %._crit_edge36, label %.lr.ph35

.lr.ph35:                                         ; preds = %15
  %21 = load ptr, ptr %3, align 8, !tbaa !16
  %22 = getelementptr inbounds nuw i8, ptr %3, i64 44
  %23 = load i32, ptr %22, align 4, !tbaa !41
  %24 = sext i32 %23 to i64
  %25 = getelementptr inbounds nuw i8, ptr %3, i64 16
  %26 = load i64, ptr %25, align 8, !tbaa !38
  %factor.op.mul = mul i64 %26, %24
  %27 = load i32, ptr %4, align 4, !tbaa !215
  %28 = icmp sgt i32 %27, 0
  %29 = load ptr, ptr %5, align 8
  %30 = load ptr, ptr %6, align 8, !tbaa !16
  %31 = load ptr, ptr %7, align 8, !tbaa !213
  %32 = sext i32 %20 to i64
  %33 = add nsw i32 %19, 1
  br i1 %28, label %.lr.ph.us.preheader, label %.lr.ph35.split

.lr.ph.us.preheader:                              ; preds = %.lr.ph35
  %wide.trip.count = zext nneg i32 %27 to i64
  br label %.lr.ph.us

.lr.ph.us:                                        ; preds = %.lr.ph.us.preheader, %._crit_edge.us
  %indvars.iv43 = phi i64 [ %32, %.lr.ph.us.preheader ], [ %indvars.iv.next44, %._crit_edge.us ]
  %.reass.us = mul i64 %factor.op.mul, %indvars.iv43
  %34 = getelementptr inbounds nuw i8, ptr %21, i64 %.reass.us
  br label %35

35:                                               ; preds = %.lr.ph.us, %35
  %indvars.iv39 = phi i64 [ 0, %.lr.ph.us ], [ %indvars.iv.next40, %35 ]
  %.02830.us = phi float [ 0.000000e+00, %.lr.ph.us ], [ %41, %35 ]
  %36 = getelementptr inbounds nuw float, ptr %29, i64 %indvars.iv39
  %37 = load float, ptr %36, align 4, !tbaa !47
  %38 = getelementptr inbounds nuw float, ptr %34, i64 %indvars.iv39
  %39 = load float, ptr %38, align 4, !tbaa !47
  %40 = fmul fast float %39, %37
  %41 = fadd fast float %40, %.02830.us
  %indvars.iv.next40 = add nuw nsw i64 %indvars.iv39, 1
  %exitcond42.not = icmp eq i64 %indvars.iv.next40, %wide.trip.count
  br i1 %exitcond42.not, label %._crit_edge.us, label %35, !llvm.loop !232

._crit_edge.us:                                   ; preds = %35
  %42 = getelementptr inbounds nuw float, ptr %30, i64 %indvars.iv43
  store float %41, ptr %42, align 4, !tbaa !47
  %43 = getelementptr inbounds float, ptr %31, i64 %indvars.iv43
  store float %41, ptr %43, align 4, !tbaa !47
  %indvars.iv.next44 = add nsw i64 %indvars.iv43, 1
  %lftr.wideiv46 = trunc i64 %indvars.iv.next44 to i32
  %exitcond47.not = icmp eq i32 %33, %lftr.wideiv46
  br i1 %exitcond47.not, label %._crit_edge36, label %.lr.ph.us

.lr.ph35.split:                                   ; preds = %.lr.ph35, %.lr.ph35.split
  %indvars.iv = phi i64 [ %indvars.iv.next, %.lr.ph35.split ], [ %32, %.lr.ph35 ]
  %44 = getelementptr inbounds nuw float, ptr %30, i64 %indvars.iv
  store float 0.000000e+00, ptr %44, align 4, !tbaa !47
  %45 = getelementptr inbounds float, ptr %31, i64 %indvars.iv
  store float 0.000000e+00, ptr %45, align 4, !tbaa !47
  %indvars.iv.next = add nsw i64 %indvars.iv, 1
  %lftr.wideiv = trunc i64 %indvars.iv.next to i32
  %exitcond.not = icmp eq i32 %33, %lftr.wideiv
  br i1 %exitcond.not, label %._crit_edge36, label %.lr.ph35.split

._crit_edge36:                                    ; preds = %.lr.ph35.split, %._crit_edge.us, %15
  call void @__kmpc_for_static_fini(ptr nonnull @1, i32 %17)
  call void @llvm.lifetime.end.p0(i64 4, ptr nonnull %12) #10
  call void @llvm.lifetime.end.p0(i64 4, ptr nonnull %11) #10
  call void @llvm.lifetime.end.p0(i64 4, ptr nonnull %10) #10
  call void @llvm.lifetime.end.p0(i64 4, ptr nonnull %9) #10
  br label %46

46:                                               ; preds = %._crit_edge36, %8
  ret void
}